; Function Attrs: nounwind uwtable
define i32 @png_image_begin_read_from_stdio(ptr noundef %0, ptr noundef %1) local_unnamed_addr #0 {
  %.not = icmp eq ptr %0, null
  br i1 %.not, label %.critedge, label %3

3:                                                ; preds = %2
  %4 = getelementptr inbounds i8, ptr %0, i64 8
  %5 = load i32, ptr %4, align 8
  %6 = icmp eq i32 %5, 1
  br i1 %6, label %7, label %17

7:                                                ; preds = %3
  %.not13 = icmp eq ptr %1, null
  br i1 %.not13, label %15, label %8

8:                                                ; preds = %7
  %9 = tail call fastcc i32 @png_image_read_init(ptr noundef nonnull %0)
  %.not14 = icmp eq i32 %9, 0
  br i1 %.not14, label %.critedge, label %10

10:                                               ; preds = %8
  %11 = load ptr, ptr %0, align 8
  %12 = load ptr, ptr %11, align 8
  %13 = getelementptr inbounds i8, ptr %12, i64 264
  store ptr %1, ptr %13, align 8
  %14 = tail call i32 @png_safe_execute(ptr noundef nonnull %0, ptr noundef nonnull @png_image_read_header, ptr noundef nonnull %0) #11
  br label %.critedge

15:                                               ; preds = %7
  %16 = tail call i32 @png_image_error(ptr noundef nonnull %0, ptr noundef nonnull @.str.14) #11
  br label %.critedge

17:                                               ; preds = %3
  %18 = tail call i32 @png_image_error(ptr noundef nonnull %0, ptr noundef nonnull @.str.15) #11
  br label %.critedge

.critedge:                                        ; preds = %8, %2, %17, %15, %10
  %.0 = phi i32 [ %14, %10 ], [ %16, %15 ], [ %18, %17 ], [ 0, %2 ], [ 0, %8 ]
  ret i32 %.0
}